target datalayout = "e-m:e-p270:32:32-p271:32:32-p272:64:64-i64:64-i128:128-f80:128-n8:16:32:64-S128"
target triple = "x86_64-pc-linux-gnu"

%"class.Luau::AstNode.base" = type <{ ptr, i32, %"struct.Luau::Location" }>
%"struct.Luau::Location" = type { %"struct.Luau::Position", %"struct.Luau::Position" }
%"struct.Luau::Position" = type { i32, i32 }
%"struct.Luau::AstArray.26" = type { ptr, i64 }
%"class.Luau::AstType.base" = type { %"class.Luau::AstNode.base" }
%"class.Luau::AstTypeIntersection" = type { %"class.Luau::AstType.base", %"struct.Luau::AstArray.26" }

; Function Attrs: mustprogress nounwind uwtable
define linkonce_odr dso_local noundef ptr @_ZNK4Luau8AstArrayIPNS_7AstTypeEE3endEv(ptr noundef nonnull align 8 dereferenceable(16) %0) #4 comdat align 2 {
  %2 = alloca ptr, align 8
  store ptr %0, ptr %2, align 8, !tbaa !481
  %3 = load ptr, ptr %2, align 8
  %4 = getelementptr inbounds nuw %"struct.Luau::AstArray.26", ptr %3, i32 0, i32 0
  %5 = load ptr, ptr %4, align 8, !tbaa !613
  %6 = getelementptr inbounds nuw %"struct.Luau::AstArray.26", ptr %3, i32 0, i32 1
  %7 = load i64, ptr %6, align 8, !tbaa !614
  %8 = getelementptr inbounds nuw ptr, ptr %5, i64 %7
  ret ptr %8
}

; Function Attrs: mustprogress nounwind uwtable
define linkonce_odr dso_local noundef ptr @_ZNK4Luau8AstArrayIPNS_7AstTypeEE5beginEv(ptr noundef nonnull align 8 dereferenceable(16) %0) #4 comdat align 2 {
  %2 = alloca ptr, align 8
  store ptr %0, ptr %2, align 8, !tbaa !481
  %3 = load ptr, ptr %2, align 8
  %4 = getelementptr inbounds nuw %"struct.Luau::AstArray.26", ptr %3, i32 0, i32 0
  %5 = load ptr, ptr %4, align 8, !tbaa !613
  ret ptr %5
}

; Function Attrs: mustprogress uwtable
define dso_local void @_ZN4Luau20DataFlowGraphBuilder9visitTypeEPNS_19AstTypeIntersectionE(ptr noundef nonnull align 8 dereferenceable(336) %0, ptr noundef %1) #2 align 2 {
  %3 = alloca ptr, align 8
  %4 = alloca ptr, align 8
  %5 = alloca ptr, align 8
  %6 = alloca ptr, align 8
  %7 = alloca ptr, align 8
  %8 = alloca ptr, align 8
  store ptr %0, ptr %3, align 8, !tbaa !154
  store ptr %1, ptr %4, align 8, !tbaa !438
  %9 = load ptr, ptr %3, align 8
  call void @llvm.lifetime.start.p0(i64 8, ptr %5) #17
  %10 = load ptr, ptr %4, align 8, !tbaa !438
  %11 = getelementptr inbounds nuw %"class.Luau::AstTypeIntersection", ptr %10, i32 0, i32 1
  store ptr %11, ptr %5, align 8, !tbaa !481
  call void @llvm.lifetime.start.p0(i64 8, ptr %6) #17
  %12 = load ptr, ptr %5, align 8, !tbaa !481
  %13 = call noundef ptr @_ZNK4Luau8AstArrayIPNS_7AstTypeEE5beginEv(ptr noundef nonnull align 8 dereferenceable(16) %12)
  store ptr %13, ptr %6, align 8, !tbaa !410
  call void @llvm.lifetime.start.p0(i64 8, ptr %7) #17
  %14 = load ptr, ptr %5, align 8, !tbaa !481
  %15 = call noundef ptr @_ZNK4Luau8AstArrayIPNS_7AstTypeEE3endEv(ptr noundef nonnull align 8 dereferenceable(16) %14)
  store ptr %15, ptr %7, align 8, !tbaa !410
  br label %16

16:                                               ; preds = %25, %2
  %17 = load ptr, ptr %6, align 8, !tbaa !410
  %18 = load ptr, ptr %7, align 8, !tbaa !410
  %19 = icmp ne ptr %17, %18
  br i1 %19, label %21, label %20

20:                                               ; preds = %16
  call void @llvm.lifetime.end.p0(i64 8, ptr %7) #17
  call void @llvm.lifetime.end.p0(i64 8, ptr %6) #17
  call void @llvm.lifetime.end.p0(i64 8, ptr %5) #17
  br label %28

21:                                               ; preds = %16
  call void @llvm.lifetime.start.p0(i64 8, ptr %8) #17
  %22 = load ptr, ptr %6, align 8, !tbaa !410
  %23 = load ptr, ptr %22, align 8, !tbaa !419
  store ptr %23, ptr %8, align 8, !tbaa !419
  %24 = load ptr, ptr %8, align 8, !tbaa !419
  call void @_ZN4Luau20DataFlowGraphBuilder9visitTypeEPNS_7AstTypeE(ptr noundef nonnull align 8 dereferenceable(336) %9, ptr noundef %24)
  call void @llvm.lifetime.end.p0(i64 8, ptr %8) #17
  br label %25

25:                                               ; preds = %21
  %26 = load ptr, ptr %6, align 8, !tbaa !410
  %27 = getelementptr inbounds nuw ptr, ptr %26, i32 1
  store ptr %27, ptr %6, align 8, !tbaa !410
  br label %16

28:                                               ; preds = %20
  ret void
}